; Function Attrs: mustprogress uwtable
define noundef i64 @_Z16fast_rv32e_auipcP11processor_t6insn_tm(ptr nocapture noundef writeonly %0, i64 %1, i64 noundef %2) local_unnamed_addr #5 personality ptr @__gxx_personality_v0 {
  %4 = lshr i64 %1, 7
  %5 = and i64 %4, 31
  %6 = icmp ugt i64 %5, 15
  br i1 %6, label %7, label %12

7:                                                ; preds = %3
  %8 = tail call ptr @__cxa_allocate_exception(i64 32) #16
  %9 = getelementptr inbounds i8, ptr %8, i64 8
  store i64 2, ptr %9, align 8
  %10 = getelementptr inbounds i8, ptr %8, i64 16
  store i8 0, ptr %10, align 8
  %11 = getelementptr inbounds i8, ptr %8, i64 24
  store i64 %1, ptr %11, align 8
  store ptr getelementptr inbounds ({ [12 x ptr] }, ptr @_ZTV24trap_illegal_instruction, i64 0, i32 0, i64 2), ptr %8, align 8
  tail call void @__cxa_throw(ptr nonnull %8, ptr nonnull @_ZTI24trap_illegal_instruction, ptr nonnull @_ZN24trap_illegal_instructionD2Ev) #17
  unreachable

12:                                               ; preds = %3
  %.not.i = icmp eq i64 %5, 0
  br i1 %.not.i, label %_ZN9regfile_tImLm32ELb1EE5writeEmm.exit, label %13

13:                                               ; preds = %12
  %14 = getelementptr inbounds i8, ptr %0, i64 120
  %15 = and i64 %1, 4294963200
  %16 = add i64 %15, %2
  %17 = shl i64 %16, 32
  %18 = ashr exact i64 %17, 32
  %19 = getelementptr inbounds [32 x i64], ptr %14, i64 0, i64 %5
  store i64 %18, ptr %19, align 8
  br label %_ZN9regfile_tImLm32ELb1EE5writeEmm.exit

_ZN9regfile_tImLm32ELb1EE5writeEmm.exit:          ; preds = %12, %13
  %20 = shl i64 %2, 32
  %21 = add i64 %20, 17179869184
  %22 = ashr exact i64 %21, 32
  ret i64 %22
}